target datalayout = "e-m:e-p270:32:32-p271:32:32-p272:64:64-i64:64-i128:128-f80:128-n8:16:32:64-S128"
target triple = "x86_64-unknown-linux-gnu"

%struct.gpr_spinlock = type { i64 }
%"class.grpc_core::Executor" = type { ptr, ptr, i64, i64, %struct.gpr_spinlock }

; Function Attrs: mustprogress nounwind uwtable
define linkonce_odr noundef nonnull align 4 dereferenceable(4) ptr @_ZSt3maxIjERKT_S2_S2_(ptr noundef nonnull align 4 dereferenceable(4) %__a, ptr noundef nonnull align 4 dereferenceable(4) %__b) #6 comdat {
entry:
  %retval = alloca ptr, align 8
  %__a.addr = alloca ptr, align 8
  %__b.addr = alloca ptr, align 8
  store ptr %__a, ptr %__a.addr, align 8
  store ptr %__b, ptr %__b.addr, align 8
  %0 = load ptr, ptr %__a.addr, align 8
  %1 = load i32, ptr %0, align 4
  %2 = load ptr, ptr %__b.addr, align 8
  %3 = load i32, ptr %2, align 4
  %cmp = icmp ult i32 %1, %3
  br i1 %cmp, label %if.then, label %if.end

if.then:                                          ; preds = %entry
  %4 = load ptr, ptr %__b.addr, align 8
  store ptr %4, ptr %retval, align 8
  br label %return

if.end:                                           ; preds = %entry
  %5 = load ptr, ptr %__a.addr, align 8
  store ptr %5, ptr %retval, align 8
  br label %return

return:                                           ; preds = %if.end, %if.then
  %6 = load ptr, ptr %retval, align 8
  ret ptr %6
}

; Function Attrs: mustprogress uwtable
define void @_ZN9grpc_core8ExecutorC2EPKc(ptr noundef nonnull align 8 dereferenceable(40) %this, ptr noundef %name) unnamed_addr #4 align 2 {
entry:
  %this.addr = alloca ptr, align 8
  %name.addr = alloca ptr, align 8
  %ref.tmp = alloca %struct.gpr_spinlock, align 8
  %.atomictmp = alloca i64, align 8
  %ref.tmp3 = alloca i32, align 4
  %ref.tmp4 = alloca i32, align 4
  store ptr %this, ptr %this.addr, align 8
  store ptr %name, ptr %name.addr, align 8
  %this1 = load ptr, ptr %this.addr, align 8
  %name_ = getelementptr inbounds %"class.grpc_core::Executor", ptr %this1, i32 0, i32 0
  %0 = load ptr, ptr %name.addr, align 8
  store ptr %0, ptr %name_, align 8
  %atm = getelementptr inbounds %struct.gpr_spinlock, ptr %ref.tmp, i32 0, i32 0
  store i64 0, ptr %atm, align 8
  %adding_thread_lock_2 = getelementptr inbounds %"class.grpc_core::Executor", ptr %this1, i32 0, i32 4
  call void @llvm.memcpy.p0.p0.i64(ptr align 8 %adding_thread_lock_2, ptr align 8 %ref.tmp, i64 8, i1 false)
  %num_threads_ = getelementptr inbounds %"class.grpc_core::Executor", ptr %this1, i32 0, i32 3
  store i64 0, ptr %.atomictmp, align 8
  %1 = load i64, ptr %.atomictmp, align 8
  store atomic i64 %1, ptr %num_threads_ release, align 8
  store i32 1, ptr %ref.tmp3, align 4
  %call = call i32 @gpr_cpu_num_cores()
  %mul = mul i32 2, %call
  store i32 %mul, ptr %ref.tmp4, align 4
  %call5 = call noundef nonnull align 4 dereferenceable(4) ptr @_ZSt3maxIjERKT_S2_S2_(ptr noundef nonnull align 4 dereferenceable(4) %ref.tmp3, ptr noundef nonnull align 4 dereferenceable(4) %ref.tmp4)
  %2 = load i32, ptr %call5, align 4
  %conv = zext i32 %2 to i64
  %max_threads_ = getelementptr inbounds %"class.grpc_core::Executor", ptr %this1, i32 0, i32 2
  store i64 %conv, ptr %max_threads_, align 8
  ret void
}