; Function Attrs: mustprogress uwtable
define void @_ZN9grpc_core8ExecutorC2EPKc(ptr nocapture noundef nonnull writeonly align 8 dereferenceable(40) %this, ptr noundef %name) unnamed_addr #3 align 2 {
entry:
  store ptr %name, ptr %this, align 8
  %adding_thread_lock_2 = getelementptr inbounds i8, ptr %this, i64 32
  store i64 0, ptr %adding_thread_lock_2, align 8
  %num_threads_ = getelementptr inbounds i8, ptr %this, i64 24
  store atomic i64 0, ptr %num_threads_ release, align 8
  %call = tail call i32 @gpr_cpu_num_cores()
  %mul = shl i32 %call, 1
  %.sroa.speculated = tail call i32 @llvm.umax.i32(i32 %mul, i32 1)
  %conv = zext i32 %.sroa.speculated to i64
  %max_threads_ = getelementptr inbounds i8, ptr %this, i64 16
  store i64 %conv, ptr %max_threads_, align 8
  ret void
}